; Function Attrs: mustprogress nofree norecurse nosync nounwind willreturn memory(argmem: read) uwtable
define hidden ptr @_ZN6hermes2vm8JSRegExp10getPatternEPS1_RNS0_11PointerBaseE(ptr nocapture noundef readonly %self, ptr noundef nonnull align 1 dereferenceable(1) %base) local_unnamed_addr #1 align 2 {
entry:
  %pattern_ = getelementptr inbounds i8, ptr %self, i64 20
  %agg.tmp.sroa.0.0.copyload.i.i = load i32, ptr %pattern_, align 4
  %cmp.i.not.i.i.i.i = icmp eq i32 %agg.tmp.sroa.0.0.copyload.i.i, 0
  %0 = ptrtoint ptr %base to i64
  %conv.i.i.i.i.i = zext i32 %agg.tmp.sroa.0.0.copyload.i.i to i64
  %add.i.i.i.i.i = add i64 %conv.i.i.i.i.i, %0
  %1 = inttoptr i64 %add.i.i.i.i.i to ptr
  %cond.i.i.i.i = select i1 %cmp.i.not.i.i.i.i, ptr null, ptr %1
  ret ptr %cond.i.i.i.i
}